; Function Attrs: nounwind uwtable
define double @php_random_gammasection_closed_closed(ptr %0, ptr %1, double noundef %2, double noundef %3) local_unnamed_addr #0 {
  %5 = tail call double @llvm.fabs.f64(double %2)
  %6 = tail call double @llvm.fabs.f64(double %3)
  %7 = fcmp ogt double %5, %6
  br i1 %7, label %8, label %11

8:                                                ; preds = %4
  %9 = tail call double @nextafter(double noundef %2, double noundef 0x7FEFFFFFFFFFFFFF) #4
  %10 = fsub double %9, %2
  br label %gamma_max.exit

11:                                               ; preds = %4
  %12 = tail call double @nextafter(double noundef %3, double noundef 0xFFEFFFFFFFFFFFFF) #4
  %13 = fsub double %3, %12
  br label %gamma_max.exit

gamma_max.exit:                                   ; preds = %8, %11
  %14 = phi double [ %10, %8 ], [ %13, %11 ]
  %15 = fdiv double %3, %14
  %16 = fdiv double %2, %14
  %17 = fsub double %15, %16
  %18 = fcmp ugt double %5, %6
  br i1 %18, label %24, label %19

19:                                               ; preds = %gamma_max.exit
  %20 = fneg double %2
  %21 = fdiv double %20, %14
  %22 = fsub double %17, %15
  %23 = fsub double %21, %22
  br label %ceilint.exit

24:                                               ; preds = %gamma_max.exit
  %25 = fadd double %16, %17
  %26 = fsub double %15, %25
  br label %ceilint.exit

ceilint.exit:                                     ; preds = %19, %24
  %.0.i = phi double [ %23, %19 ], [ %26, %24 ]
  %27 = fcmp olt double %3, %2
  br i1 %27, label %59, label %28

28:                                               ; preds = %ceilint.exit
  %29 = tail call double @llvm.ceil.f64(double %17)
  %30 = fcmp oeq double %17, %29
  %31 = fcmp ogt double %.0.i, 0.000000e+00
  %narrow.i = and i1 %30, %31
  %32 = zext i1 %narrow.i to i64
  %33 = fptoui double %29 to i64
  %34 = add i64 %32, %33
  %35 = tail call i64 @php_random_range64(ptr %0, ptr %1, i64 noundef %34) #4
  %36 = icmp eq i64 %35, %34
  br i1 %18, label %49, label %37

37:                                               ; preds = %28
  br i1 %36, label %59, label %38

38:                                               ; preds = %37
  %39 = lshr i64 %35, 2
  %40 = uitofp i64 %39 to double
  %41 = and i64 %35, 3
  %42 = uitofp i64 %41 to double
  %43 = fneg double %40
  %44 = fmul double %14, %43
  %45 = tail call double @llvm.fmuladd.f64(double %3, double 2.500000e-01, double %44)
  %46 = fneg double %42
  %47 = fmul double %14, %46
  %48 = tail call double @llvm.fmuladd.f64(double %45, double 4.000000e+00, double %47)
  br label %59

49:                                               ; preds = %28
  br i1 %36, label %59, label %50

50:                                               ; preds = %49
  %51 = lshr i64 %35, 2
  %52 = uitofp i64 %51 to double
  %53 = and i64 %35, 3
  %54 = uitofp i64 %53 to double
  %55 = fmul double %14, %52
  %56 = tail call double @llvm.fmuladd.f64(double %2, double 2.500000e-01, double %55)
  %57 = fmul double %14, %54
  %58 = tail call double @llvm.fmuladd.f64(double %56, double 4.000000e+00, double %57)
  br label %59

59:                                               ; preds = %49, %37, %ceilint.exit, %50, %38
  %.0 = phi double [ %48, %38 ], [ %58, %50 ], [ 0x7FF8000000000000, %ceilint.exit ], [ %2, %37 ], [ %3, %49 ]
  ret double %.0
}